target datalayout = "e-m:e-p270:32:32-p271:32:32-p272:64:64-i64:64-i128:128-f80:128-n8:16:32:64-S128"
target triple = "x86_64-pc-linux-gnu"

%class.dtPathQueue = type { [8 x %"struct.dtPathQueue::PathQuery"], i32, i32, i32, ptr }
%"struct.dtPathQueue::PathQuery" = type { i32, [3 x float], [3 x float], i32, i32, ptr, i32, i32, i32, ptr }

; Function Attrs: mustprogress uwtable
define void @_ZN11dtPathQueue5purgeEv(ptr noundef nonnull align 8 dereferenceable(600) %0) #1 align 2 {
  %2 = alloca ptr, align 8
  %3 = alloca i32, align 4
  store ptr %0, ptr %2, align 8
  %4 = load ptr, ptr %2, align 8
  %5 = getelementptr inbounds %class.dtPathQueue, ptr %4, i32 0, i32 4
  %6 = load ptr, ptr %5, align 8
  call void @_Z18dtFreeNavMeshQueryP14dtNavMeshQuery(ptr noundef %6)
  %7 = getelementptr inbounds %class.dtPathQueue, ptr %4, i32 0, i32 4
  store ptr null, ptr %7, align 8
  store i32 0, ptr %3, align 4
  br label %8

8:                                                ; preds = %23, %1
  %9 = load i32, ptr %3, align 4
  %10 = icmp slt i32 %9, 8
  br i1 %10, label %11, label %26

11:                                               ; preds = %8
  %12 = getelementptr inbounds %class.dtPathQueue, ptr %4, i32 0, i32 0
  %13 = load i32, ptr %3, align 4
  %14 = sext i32 %13 to i64
  %15 = getelementptr inbounds [8 x %"struct.dtPathQueue::PathQuery"], ptr %12, i64 0, i64 %14
  %16 = getelementptr inbounds %"struct.dtPathQueue::PathQuery", ptr %15, i32 0, i32 5
  %17 = load ptr, ptr %16, align 8
  call void @_Z6dtFreePv(ptr noundef %17)
  %18 = getelementptr inbounds %class.dtPathQueue, ptr %4, i32 0, i32 0
  %19 = load i32, ptr %3, align 4
  %20 = sext i32 %19 to i64
  %21 = getelementptr inbounds [8 x %"struct.dtPathQueue::PathQuery"], ptr %18, i64 0, i64 %20
  %22 = getelementptr inbounds %"struct.dtPathQueue::PathQuery", ptr %21, i32 0, i32 5
  store ptr null, ptr %22, align 8
  br label %23

23:                                               ; preds = %11
  %24 = load i32, ptr %3, align 4
  %25 = add nsw i32 %24, 1
  store i32 %25, ptr %3, align 4
  br label %8, !llvm.loop !6

26:                                               ; preds = %8
  ret void
}