; Function Attrs: mustprogress uwtable
define void @_ZN11dtPathQueue5purgeEv(ptr noundef nonnull align 8 captures(none) dereferenceable(600) %0) local_unnamed_addr #2 align 2 {
  %2 = getelementptr inbounds nuw i8, ptr %0, i64 592
  %3 = load ptr, ptr %2, align 8
  tail call void @_Z18dtFreeNavMeshQueryP14dtNavMeshQuery(ptr noundef %3)
  store ptr null, ptr %2, align 8
  br label %4

4:                                                ; preds = %1, %4
  %indvars.iv = phi i64 [ 0, %1 ], [ %indvars.iv.next, %4 ]
  %5 = getelementptr inbounds nuw [8 x %"struct.dtPathQueue::PathQuery"], ptr %0, i64 0, i64 %indvars.iv, i32 5
  %6 = load ptr, ptr %5, align 8
  tail call void @_Z6dtFreePv(ptr noundef %6)
  store ptr null, ptr %5, align 8
  %indvars.iv.next = add nuw nsw i64 %indvars.iv, 1
  %exitcond.not = icmp eq i64 %indvars.iv.next, 8
  br i1 %exitcond.not, label %7, label %4, !llvm.loop !6

7:                                                ; preds = %4
  ret void
}